target datalayout = "e-m:e-p270:32:32-p271:32:32-p272:64:64-i64:64-i128:128-f80:128-n8:16:32:64-S128"
target triple = "x86_64-pc-linux-gnu"

%struct.mbedtls_ssl_context = type { ptr, i32, i32, i32, i32, i32, ptr, ptr, ptr, ptr, ptr, ptr, ptr, ptr, ptr, ptr, ptr, ptr, ptr, ptr, ptr, ptr, ptr, ptr, ptr, ptr, ptr, ptr, ptr, ptr, ptr, ptr, ptr, i32, i64, i64, i16, i64, i64, i64, i64, i32, i32, i8, i8, i32, i8, ptr, ptr, ptr, ptr, ptr, ptr, ptr, i32, i64, i64, [8 x i8], i16, ptr, ptr, ptr, i64, i32, i64, [12 x i8], [12 x i8], [32 x i8], i8, i8, ptr, ptr, %union.mbedtls_ssl_user_data_t }
%union.mbedtls_ssl_user_data_t = type { i64 }
%struct.mbedtls_ssl_config = type { i32, i32, i8, i8, i8, i8, i8, i8, i8, i8, i8, i8, i16, i8, i8, i8, ptr, i32, ptr, ptr, ptr, ptr, ptr, ptr, ptr, ptr, ptr, ptr, ptr, ptr, ptr, ptr, ptr, ptr, ptr, ptr, ptr, i64, ptr, ptr, ptr, ptr, ptr, ptr, ptr, ptr, %struct.mbedtls_mpi, %struct.mbedtls_mpi, ptr, i64, ptr, i64, ptr, i32, i32, i32, i32, [8 x i8], i32, i32, %union.mbedtls_ssl_user_data_t, ptr, ptr }
%struct.mbedtls_mpi = type { ptr, i16, i16 }

@.str = private unnamed_addr constant [130 x i8] c"generated/home/dtcxzyw/WorkSpace/Projects/compilers/llvm-opt-benchmark/bench/lief/bench_build/mbed_src/library/ssl_tls12_client.c\00", align 1
@.str.65 = private unnamed_addr constant [43 x i8] c"non-matching max fragment length extension\00", align 1

; Function Attrs: nounwind uwtable
define internal i32 @ssl_parse_max_fragment_length_ext(ptr noundef %0, ptr noundef %1, i64 noundef %2) #0 {
  %4 = alloca i32, align 4
  %5 = alloca ptr, align 8
  %6 = alloca ptr, align 8
  %7 = alloca i64, align 8
  store ptr %0, ptr %5, align 8, !tbaa !3
  store ptr %1, ptr %6, align 8, !tbaa !8
  store i64 %2, ptr %7, align 8, !tbaa !14
  %8 = load ptr, ptr %5, align 8, !tbaa !3
  %9 = getelementptr inbounds nuw %struct.mbedtls_ssl_context, ptr %8, i32 0, i32 0
  %10 = load ptr, ptr %9, align 8, !tbaa !25
  %11 = getelementptr inbounds nuw %struct.mbedtls_ssl_config, ptr %10, i32 0, i32 6
  %12 = load i8, ptr %11, align 4, !tbaa !39
  %13 = zext i8 %12 to i32
  %14 = icmp eq i32 %13, 0
  br i1 %14, label %30, label %15

15:                                               ; preds = %3
  %16 = load i64, ptr %7, align 8, !tbaa !14
  %17 = icmp ne i64 %16, 1
  br i1 %17, label %30, label %18

18:                                               ; preds = %15
  %19 = load ptr, ptr %6, align 8, !tbaa !8
  %20 = getelementptr inbounds i8, ptr %19, i64 0
  %21 = load i8, ptr %20, align 1, !tbaa !24
  %22 = zext i8 %21 to i32
  %23 = load ptr, ptr %5, align 8, !tbaa !3
  %24 = getelementptr inbounds nuw %struct.mbedtls_ssl_context, ptr %23, i32 0, i32 0
  %25 = load ptr, ptr %24, align 8, !tbaa !25
  %26 = getelementptr inbounds nuw %struct.mbedtls_ssl_config, ptr %25, i32 0, i32 6
  %27 = load i8, ptr %26, align 4, !tbaa !39
  %28 = zext i8 %27 to i32
  %29 = icmp ne i32 %22, %28
  br i1 %29, label %30, label %34

30:                                               ; preds = %18, %15, %3
  %31 = load ptr, ptr %5, align 8, !tbaa !3
  call void (ptr, i32, ptr, i32, ptr, ...) @mbedtls_debug_print_msg(ptr noundef %31, i32 noundef 1, ptr noundef @.str, i32 noundef 670, ptr noundef @.str.65)
  %32 = load ptr, ptr %5, align 8, !tbaa !3
  %33 = call i32 @mbedtls_ssl_send_alert_message(ptr noundef %32, i8 noundef zeroext 2, i8 noundef zeroext 47)
  store i32 -26112, ptr %4, align 4
  br label %35

34:                                               ; preds = %18
  store i32 0, ptr %4, align 4
  br label %35

35:                                               ; preds = %34, %30
  %36 = load i32, ptr %4, align 4
  ret i32 %36
}