; Function Attrs: nounwind uwtable
define internal fastcc range(i32 -26112, 1) i32 @ssl_parse_max_fragment_length_ext(ptr noundef %0, ptr noundef readonly captures(none) %1, i64 noundef range(i64 0, 65536) %2) unnamed_addr #0 {
  %4 = load ptr, ptr %0, align 8, !tbaa !19
  %5 = getelementptr inbounds nuw i8, ptr %4, i64 12
  %6 = load i8, ptr %5, align 4, !tbaa !34
  %7 = icmp eq i8 %6, 0
  %8 = icmp ne i64 %2, 1
  %or.cond = or i1 %8, %7
  br i1 %or.cond, label %11, label %9

9:                                                ; preds = %3
  %10 = load i8, ptr %1, align 1, !tbaa !18
  %.not = icmp eq i8 %10, %6
  br i1 %.not, label %13, label %11

11:                                               ; preds = %9, %3
  tail call void (ptr, i32, ptr, i32, ptr, ...) @mbedtls_debug_print_msg(ptr noundef nonnull %0, i32 noundef 1, ptr noundef nonnull @.str, i32 noundef 670, ptr noundef nonnull @.str.65) #14
  %12 = tail call i32 @mbedtls_ssl_send_alert_message(ptr noundef nonnull %0, i8 noundef zeroext 2, i8 noundef zeroext 47) #14
  br label %13

13:                                               ; preds = %9, %11
  %.0 = phi i32 [ -26112, %11 ], [ 0, %9 ]
  ret i32 %.0
}